; ModuleID = 'source-C-CXX/0/1861.cpp'
source_filename = "source-C-CXX/0/1861.cpp"
target datalayout = "e-m:e-p270:32:32-p271:32:32-p272:64:64-i64:64-f80:128-n8:16:32:64-S128"
target triple = "x86_64-pc-linux-gnu"

%"class.std::ios_base::Init" = type { i8 }
%"class.std::basic_istream" = type { i32 (...)**, i64, %"class.std::basic_ios" }
%"class.std::basic_ios" = type { %"class.std::ios_base", %"class.std::basic_ostream"*, i8, i8, %"class.std::basic_streambuf"*, %"class.std::ctype"*, %"class.std::num_put"*, %"class.std::num_get"* }
%"class.std::ios_base" = type { i32 (...)**, i64, i64, i32, i32, i32, %"struct.std::ios_base::_Callback_list"*, %"struct.std::ios_base::_Words", [8 x %"struct.std::ios_base::_Words"], i32, %"struct.std::ios_base::_Words"*, %"class.std::locale" }
%"struct.std::ios_base::_Callback_list" = type { %"struct.std::ios_base::_Callback_list"*, void (i32, %"class.std::ios_base"*, i32)*, i32, i32 }
%"struct.std::ios_base::_Words" = type { i8*, i64 }
%"class.std::locale" = type { %"class.std::locale::_Impl"* }
%"class.std::locale::_Impl" = type { i32, %"class.std::locale::facet"**, i64, %"class.std::locale::facet"**, i8** }
%"class.std::locale::facet" = type <{ i32 (...)**, i32, [4 x i8] }>
%"class.std::basic_ostream" = type { i32 (...)**, %"class.std::basic_ios" }
%"class.std::basic_streambuf" = type { i32 (...)**, i8*, i8*, i8*, i8*, i8*, i8*, %"class.std::locale" }
%"class.std::ctype" = type <{ %"class.std::locale::facet.base", [4 x i8], %struct.__locale_struct*, i8, [7 x i8], i32*, i32*, i16*, i8, [256 x i8], [256 x i8], i8, [6 x i8] }>
%"class.std::locale::facet.base" = type <{ i32 (...)**, i32 }>
%struct.__locale_struct = type { [13 x %struct.__locale_data*], i16*, i32*, i32*, [13 x i8*] }
%struct.__locale_data = type opaque
%"class.std::num_put" = type { %"class.std::locale::facet.base", [4 x i8] }
%"class.std::num_get" = type { %"class.std::locale::facet.base", [4 x i8] }

@_ZStL8__ioinit = internal global %"class.std::ios_base::Init" zeroinitializer, align 1
@__dso_handle = external hidden global i8
@sum = dso_local local_unnamed_addr global i32 0, align 4
@_ZSt3cin = external global %"class.std::basic_istream", align 8
@_ZSt4cout = external global %"class.std::basic_ostream", align 8
@llvm.global_ctors = appending global [1 x { i32, void ()*, i8* }] [{ i32, void ()*, i8* } { i32 65535, void ()* @_GLOBAL__sub_I_1861.cpp, i8* null }]

declare void @_ZNSt8ios_base4InitC1Ev(%"class.std::ios_base::Init"* nonnull align 1 dereferenceable(1)) unnamed_addr #0

; Function Attrs: nounwind
declare void @_ZNSt8ios_base4InitD1Ev(%"class.std::ios_base::Init"* nonnull align 1 dereferenceable(1)) unnamed_addr #1

; Function Attrs: nofree nounwind
declare i32 @__cxa_atexit(void (i8*)*, i8*, i8*) local_unnamed_addr #2

; Function Attrs: mustprogress nofree nosync nounwind sspstrong uwtable
define dso_local void @_Z1fii(i32 %0, i32 %1) local_unnamed_addr #3 {
  %3 = icmp eq i32 %0, 1
  br i1 %3, label %4, label %7

4:                                                ; preds = %2
  %5 = load i32, i32* @sum, align 4, !tbaa !5
  %6 = add nsw i32 %5, 1
  store i32 %6, i32* @sum, align 4, !tbaa !5
  br label %7

7:                                                ; preds = %4, %2
  %8 = icmp sgt i32 %1, %0
  br i1 %8, label %18, label %9

9:                                                ; preds = %7, %15
  %10 = phi i32 [ %16, %15 ], [ %1, %7 ]
  %11 = srem i32 %0, %10
  %12 = sdiv i32 %0, %10
  %13 = icmp eq i32 %11, 0
  br i1 %13, label %14, label %15

14:                                               ; preds = %9
  tail call void @_Z1fii(i32 %12, i32 %10)
  br label %15

15:                                               ; preds = %9, %14
  %16 = add i32 %10, 1
  %17 = icmp eq i32 %10, %0
  br i1 %17, label %18, label %9, !llvm.loop !9

18:                                               ; preds = %15, %7
  ret void
}

; Function Attrs: mustprogress norecurse sspstrong uwtable
define dso_local i32 @main() local_unnamed_addr #4 {
  %1 = alloca i32, align 4
  %2 = alloca i32, align 4
  %3 = bitcast i32* %1 to i8*
  call void @llvm.lifetime.start.p0i8(i64 4, i8* nonnull %3) #9
  %4 = call nonnull align 8 dereferenceable(16) %"class.std::basic_istream"* @_ZNSirsERi(%"class.std::basic_istream"* nonnull align 8 dereferenceable(16) @_ZSt3cin, i32* nonnull align 4 dereferenceable(4) %1)
  %5 = bitcast i32* %2 to i8*
  %6 = load i32, i32* %1, align 4, !tbaa !5
  %7 = icmp sgt i32 %6, 0
  br i1 %7, label %8, label %69

8:                                                ; preds = %0, %62
  %9 = phi i32 [ %66, %62 ], [ 0, %0 ]
  call void @llvm.lifetime.start.p0i8(i64 4, i8* nonnull %5) #9
  %10 = call nonnull align 8 dereferenceable(16) %"class.std::basic_istream"* @_ZNSirsERi(%"class.std::basic_istream"* nonnull align 8 dereferenceable(16) @_ZSt3cin, i32* nonnull align 4 dereferenceable(4) %2)
  %11 = load i32, i32* %2, align 4, !tbaa !5
  %12 = sitofp i32 %11 to double
  %13 = call double @sqrt(double %12) #9
  %14 = fcmp ogt double %13, 2.000000e+00
  br i1 %14, label %15, label %34

15:                                               ; preds = %8, %25
  %16 = phi i32 [ %28, %25 ], [ 1, %8 ]
  %17 = phi i32 [ %29, %25 ], [ 2, %8 ]
  store i32 0, i32* @sum, align 4, !tbaa !5
  %18 = load i32, i32* %2, align 4, !tbaa !5
  %19 = srem i32 %18, %17
  %20 = sdiv i32 %18, %17
  %21 = icmp eq i32 %19, 0
  br i1 %21, label %22, label %25

22:                                               ; preds = %15
  call void @_Z1fii(i32 %20, i32 %17)
  %23 = load i32, i32* @sum, align 4, !tbaa !5
  %24 = load i32, i32* %2, align 4, !tbaa !5
  br label %25

25:                                               ; preds = %22, %15
  %26 = phi i32 [ %24, %22 ], [ %18, %15 ]
  %27 = phi i32 [ %23, %22 ], [ 0, %15 ]
  %28 = add nsw i32 %27, %16
  %29 = add nuw nsw i32 %17, 1
  %30 = sitofp i32 %29 to double
  %31 = sitofp i32 %26 to double
  %32 = call double @sqrt(double %31) #9
  %33 = fcmp ogt double %32, %30
  br i1 %33, label %15, label %34, !llvm.loop !11

34:                                               ; preds = %25, %8
  %35 = phi i32 [ 1, %8 ], [ %28, %25 ]
  %36 = call nonnull align 8 dereferenceable(8) %"class.std::basic_ostream"* @_ZNSolsEi(%"class.std::basic_ostream"* nonnull align 8 dereferenceable(8) @_ZSt4cout, i32 %35)
  %37 = bitcast %"class.std::basic_ostream"* %36 to i8**
  %38 = load i8*, i8** %37, align 8, !tbaa !12
  %39 = getelementptr i8, i8* %38, i64 -24
  %40 = bitcast i8* %39 to i64*
  %41 = load i64, i64* %40, align 8
  %42 = bitcast %"class.std::basic_ostream"* %36 to i8*
  %43 = add nsw i64 %41, 240
  %44 = getelementptr inbounds i8, i8* %42, i64 %43
  %45 = bitcast i8* %44 to %"class.std::ctype"**
  %46 = load %"class.std::ctype"*, %"class.std::ctype"** %45, align 8, !tbaa !14
  %47 = icmp eq %"class.std::ctype"* %46, null
  br i1 %47, label %48, label %49

48:                                               ; preds = %34
  call void @_ZSt16__throw_bad_castv() #10
  unreachable

49:                                               ; preds = %34
  %50 = getelementptr inbounds %"class.std::ctype", %"class.std::ctype"* %46, i64 0, i32 8
  %51 = load i8, i8* %50, align 8, !tbaa !18
  %52 = icmp eq i8 %51, 0
  br i1 %52, label %56, label %53

53:                                               ; preds = %49
  %54 = getelementptr inbounds %"class.std::ctype", %"class.std::ctype"* %46, i64 0, i32 9, i64 10
  %55 = load i8, i8* %54, align 1, !tbaa !20
  br label %62

56:                                               ; preds = %49
  call void @_ZNKSt5ctypeIcE13_M_widen_initEv(%"class.std::ctype"* nonnull align 8 dereferenceable(570) %46)
  %57 = bitcast %"class.std::ctype"* %46 to i8 (%"class.std::ctype"*, i8)***
  %58 = load i8 (%"class.std::ctype"*, i8)**, i8 (%"class.std::ctype"*, i8)*** %57, align 8, !tbaa !12
  %59 = getelementptr inbounds i8 (%"class.std::ctype"*, i8)*, i8 (%"class.std::ctype"*, i8)** %58, i64 6
  %60 = load i8 (%"class.std::ctype"*, i8)*, i8 (%"class.std::ctype"*, i8)** %59, align 8
  %61 = call signext i8 %60(%"class.std::ctype"* nonnull align 8 dereferenceable(570) %46, i8 signext 10)
  br label %62

62:                                               ; preds = %53, %56
  %63 = phi i8 [ %55, %53 ], [ %61, %56 ]
  %64 = call nonnull align 8 dereferenceable(8) %"class.std::basic_ostream"* @_ZNSo3putEc(%"class.std::basic_ostream"* nonnull align 8 dereferenceable(8) %36, i8 signext %63)
  %65 = call nonnull align 8 dereferenceable(8) %"class.std::basic_ostream"* @_ZNSo5flushEv(%"class.std::basic_ostream"* nonnull align 8 dereferenceable(8) %64)
  call void @llvm.lifetime.end.p0i8(i64 4, i8* nonnull %5) #9
  %66 = add nuw nsw i32 %9, 1
  %67 = load i32, i32* %1, align 4, !tbaa !5
  %68 = icmp slt i32 %66, %67
  br i1 %68, label %8, label %69, !llvm.loop !21

69:                                               ; preds = %62, %0
  call void @llvm.lifetime.end.p0i8(i64 4, i8* nonnull %3) #9
  ret i32 0
}

; Function Attrs: argmemonly mustprogress nofree nosync nounwind willreturn
declare void @llvm.lifetime.start.p0i8(i64 immarg, i8* nocapture) #5

declare nonnull align 8 dereferenceable(16) %"class.std::basic_istream"* @_ZNSirsERi(%"class.std::basic_istream"* nonnull align 8 dereferenceable(16), i32* nonnull align 4 dereferenceable(4)) local_unnamed_addr #0

declare nonnull align 8 dereferenceable(8) %"class.std::basic_ostream"* @_ZNSolsEi(%"class.std::basic_ostream"* nonnull align 8 dereferenceable(8), i32) local_unnamed_addr #0

; Function Attrs: argmemonly mustprogress nofree nosync nounwind willreturn
declare void @llvm.lifetime.end.p0i8(i64 immarg, i8* nocapture) #5

; Function Attrs: mustprogress nofree nounwind willreturn
declare double @sqrt(double) local_unnamed_addr #6

declare nonnull align 8 dereferenceable(8) %"class.std::basic_ostream"* @_ZNSo3putEc(%"class.std::basic_ostream"* nonnull align 8 dereferenceable(8), i8 signext) local_unnamed_addr #0

declare nonnull align 8 dereferenceable(8) %"class.std::basic_ostream"* @_ZNSo5flushEv(%"class.std::basic_ostream"* nonnull align 8 dereferenceable(8)) local_unnamed_addr #0

; Function Attrs: noreturn
declare void @_ZSt16__throw_bad_castv() local_unnamed_addr #7

declare void @_ZNKSt5ctypeIcE13_M_widen_initEv(%"class.std::ctype"* nonnull align 8 dereferenceable(570)) local_unnamed_addr #0

; Function Attrs: sspstrong uwtable
define internal void @_GLOBAL__sub_I_1861.cpp() #8 section ".text.startup" {
  tail call void @_ZNSt8ios_base4InitC1Ev(%"class.std::ios_base::Init"* nonnull align 1 dereferenceable(1) @_ZStL8__ioinit)
  %1 = tail call i32 @__cxa_atexit(void (i8*)* bitcast (void (%"class.std::ios_base::Init"*)* @_ZNSt8ios_base4InitD1Ev to void (i8*)*), i8* getelementptr inbounds (%"class.std::ios_base::Init", %"class.std::ios_base::Init"* @_ZStL8__ioinit, i64 0, i32 0), i8* nonnull @__dso_handle) #9
  ret void
}


!llvm.module.flags = !{!0, !1, !2, !3}
!llvm.ident = !{!4}

!0 = !{i32 1, !"wchar_size", i32 4}
!1 = !{i32 7, !"PIC Level", i32 2}
!2 = !{i32 7, !"PIE Level", i32 2}
!3 = !{i32 7, !"uwtable", i32 1}
!4 = !{!"clang version 13.0.0"}
!5 = !{!6, !6, i64 0}
!6 = !{!"int", !7, i64 0}
!7 = !{!"omnipotent char", !8, i64 0}
!8 = !{!"Simple C++ TBAA"}
!9 = distinct !{!9, !10}
!10 = !{!"llvm.loop.mustprogress"}
!11 = distinct !{!11, !10}
!12 = !{!13, !13, i64 0}
!13 = !{!"vtable pointer", !8, i64 0}
!14 = !{!15, !16, i64 240}
!15 = !{!"_ZTSSt9basic_iosIcSt11char_traitsIcEE", !16, i64 216, !7, i64 224, !17, i64 225, !16, i64 232, !16, i64 240, !16, i64 248, !16, i64 256}
!16 = !{!"any pointer", !7, i64 0}
!17 = !{!"bool", !7, i64 0}
!18 = !{!19, !7, i64 56}
!19 = !{!"_ZTSSt5ctypeIcE", !16, i64 16, !17, i64 24, !16, i64 32, !16, i64 40, !16, i64 48, !7, i64 56, !7, i64 57, !7, i64 313, !7, i64 569}
!20 = !{!7, !7, i64 0}
!21 = distinct !{!21, !10}
